target datalayout = "e-m:e-p270:32:32-p271:32:32-p272:64:64-i64:64-i128:128-f80:128-n8:16:32:64-S128"
target triple = "x86_64-pc-linux-gnu"

%struct.step_update_request_msg = type { i32, i32, i32 }

@.str.2 = private unnamed_addr constant [22 x i8] c"slurm_protocol_pack.c\00", align 1
@__func__._unpack_update_job_step_msg = private unnamed_addr constant [28 x i8] c"_unpack_update_job_step_msg\00", align 1

; Function Attrs: nounwind uwtable
define internal i32 @_unpack_update_job_step_msg(ptr noundef %0, ptr noundef %1, i16 noundef zeroext %2) #0 {
  %4 = alloca i32, align 4
  %5 = alloca ptr, align 8
  %6 = alloca ptr, align 8
  %7 = alloca i16, align 2
  %8 = alloca ptr, align 8
  %9 = alloca i32, align 4
  store ptr %0, ptr %5, align 8
  store ptr %1, ptr %6, align 8
  store i16 %2, ptr %7, align 2
  call void @llvm.lifetime.start.p0(i64 8, ptr %8) #6
  %10 = call ptr @slurm_xcalloc(i64 noundef 1, i64 noundef 12, i1 noundef zeroext true, i1 noundef zeroext false, ptr noundef @.str.2, i32 noundef 8609, ptr noundef @__func__._unpack_update_job_step_msg)
  store ptr %10, ptr %8, align 8
  %11 = load ptr, ptr %8, align 8
  %12 = load ptr, ptr %5, align 8
  store ptr %11, ptr %12, align 8
  %13 = load i16, ptr %7, align 2
  %14 = zext i16 %13 to i32
  %15 = icmp sge i32 %14, 10240
  br i1 %15, label %16, label %47

16:                                               ; preds = %3
  br label %17

17:                                               ; preds = %16
  %18 = load ptr, ptr %8, align 8
  %19 = getelementptr inbounds nuw %struct.step_update_request_msg, ptr %18, i32 0, i32 0
  %20 = load ptr, ptr %6, align 8
  %21 = call i32 @unpack32(ptr noundef %19, ptr noundef %20)
  %22 = icmp ne i32 %21, 0
  br i1 %22, label %23, label %24

23:                                               ; preds = %17
  br label %48

24:                                               ; preds = %17
  br label %25

25:                                               ; preds = %24
  br label %26

26:                                               ; preds = %25
  br label %27

27:                                               ; preds = %26
  %28 = load ptr, ptr %8, align 8
  %29 = getelementptr inbounds nuw %struct.step_update_request_msg, ptr %28, i32 0, i32 1
  %30 = load ptr, ptr %6, align 8
  %31 = call i32 @unpack32(ptr noundef %29, ptr noundef %30)
  %32 = icmp ne i32 %31, 0
  br i1 %32, label %33, label %34

33:                                               ; preds = %27
  br label %48

34:                                               ; preds = %27
  br label %35

35:                                               ; preds = %34
  br label %36

36:                                               ; preds = %35
  br label %37

37:                                               ; preds = %36
  %38 = load ptr, ptr %8, align 8
  %39 = getelementptr inbounds nuw %struct.step_update_request_msg, ptr %38, i32 0, i32 2
  %40 = load ptr, ptr %6, align 8
  %41 = call i32 @unpack32(ptr noundef %39, ptr noundef %40)
  %42 = icmp ne i32 %41, 0
  br i1 %42, label %43, label %44

43:                                               ; preds = %37
  br label %48

44:                                               ; preds = %37
  br label %45

45:                                               ; preds = %44
  br label %46

46:                                               ; preds = %45
  br label %47

47:                                               ; preds = %46, %3
  store i32 0, ptr %4, align 4
  store i32 1, ptr %9, align 4
  br label %51

48:                                               ; preds = %43, %33, %23
  %49 = load ptr, ptr %8, align 8
  call void @slurm_free_update_step_msg(ptr noundef %49)
  %50 = load ptr, ptr %5, align 8
  store ptr null, ptr %50, align 8
  store i32 -1, ptr %4, align 4
  store i32 1, ptr %9, align 4
  br label %51

51:                                               ; preds = %48, %47
  call void @llvm.lifetime.end.p0(i64 8, ptr %8) #6
  %52 = load i32, ptr %4, align 4
  ret i32 %52
}